; Function Attrs: mustprogress nofree norecurse nosync nounwind willreturn memory(argmem: read) uwtable
define noundef range(i32 -2147483647, -2147483648) i32 @_ZNK10open_spiel10liars_dice13LiarsDiceGame18NumDistinctActionsEv(ptr nocapture noundef nonnull readonly align 8 dereferenceable(324) %0) unnamed_addr #8 align 2 {
  %2 = getelementptr inbounds nuw i8, ptr %0, i64 284
  %3 = load i32, ptr %2, align 4
  %4 = getelementptr inbounds nuw i8, ptr %0, i64 316
  %5 = load i32, ptr %4, align 4
  %6 = mul nsw i32 %5, %3
  %7 = add nsw i32 %6, 1
  ret i32 %7
}